target datalayout = "e-m:e-p270:32:32-p271:32:32-p272:64:64-i64:64-i128:128-f80:128-n8:16:32:64-S128"
target triple = "x86_64-unknown-linux-gnu"

%struct.QemuUUID = type { %union.anon }
%union.anon = type { %struct.anon }
%struct.anon = type { i32, i16, i16, i8, i8, [6 x i8] }

@.str.1 = private unnamed_addr constant [21 x i8] c"../qemu/block/vhdx.c\00", align 1
@.str.4 = private unnamed_addr constant [13 x i8] c"guid != NULL\00", align 1
@__PRETTY_FUNCTION__.vhdx_guid_generate = private unnamed_addr constant [34 x i8] c"void vhdx_guid_generate(MSGUID *)\00", align 1

; Function Attrs: nounwind sspstrong uwtable
define dso_local void @vhdx_guid_generate(ptr noundef %guid) #0 {
entry:
  %guid.addr = alloca ptr, align 8
  %uuid = alloca %struct.QemuUUID, align 4
  store ptr %guid, ptr %guid.addr, align 8
  %0 = load ptr, ptr %guid.addr, align 8
  %cmp = icmp ne ptr %0, null
  br i1 %cmp, label %if.then, label %if.else

if.then:                                          ; preds = %entry
  br label %if.end

if.else:                                          ; preds = %entry
  call void @__assert_fail(ptr noundef @.str.4, ptr noundef @.str.1, i32 noundef 224, ptr noundef @__PRETTY_FUNCTION__.vhdx_guid_generate) #10
  unreachable

if.end:                                           ; preds = %if.then
  call void @qemu_uuid_generate(ptr noundef %uuid)
  %1 = load ptr, ptr %guid.addr, align 8
  call void @llvm.memcpy.p0.p0.i64(ptr align 1 %1, ptr align 4 %uuid, i64 16, i1 false)
  ret void
}