; Function Attrs: nounwind sspstrong uwtable
define dso_local void @vhdx_guid_generate(ptr noundef writeonly %guid) local_unnamed_addr #0 {
entry:
  %uuid = alloca %struct.QemuUUID, align 4
  %cmp.not = icmp eq ptr %guid, null
  br i1 %cmp.not, label %if.else, label %if.end

if.else:                                          ; preds = %entry
  tail call void @__assert_fail(ptr noundef nonnull @.str.4, ptr noundef nonnull @.str.1, i32 noundef 224, ptr noundef nonnull @__PRETTY_FUNCTION__.vhdx_guid_generate) #16
  unreachable

if.end:                                           ; preds = %entry
  call void @qemu_uuid_generate(ptr noundef nonnull %uuid) #17
  call void @llvm.memcpy.p0.p0.i64(ptr noundef nonnull align 1 dereferenceable(16) %guid, ptr noundef nonnull align 4 dereferenceable(16) %uuid, i64 16, i1 false)
  ret void
}